(lp0
Vhttp://yle.fi/uutiset/kananmuna_hyvis_vai_pahis__suomalainen_geeniperima_lisaa_kolesterolihaittoja/7907200?origin=rss
p1
aVhttp://yle.fi/uutiset/tutkijoilta_paasiaisyllatys_kananmunan_syominen_saattaa_alentaa_diabetesriskia/7905940?origin=rss
p2
aVhttp://yle.fi/uutiset/jokainen_tunti_tvn_aaressa_suurentaa_diabetesriskia/7905789?origin=rss
p3
aVhttp://yle.fi/uutiset/kahle_vai_kannustaja__kokeilimme_lapsilla_aktiivisuusranneketta/7884255?origin=rss
p4
aVhttp://yle.fi/uutiset/ravitsemustuntija_kevatvasymyksen_pitaisi_olla_historiaa/7902873?origin=rss
p5
aVhttp://yle.fi/uutiset/vanhusten_liian_vahainen_proteiininsaanti_huolestuttaa_ravitsemusasiantuntijoita/7901517?origin=rss
p6
a.